target datalayout = "e-m:e-p270:32:32-p271:32:32-p272:64:64-i64:64-i128:128-f80:128-n8:16:32:64-S128"
target triple = "x86_64-pc-linux-gnu"

%"class.std::__cxx11::basic_string" = type { %"struct.std::__cxx11::basic_string<char>::_Alloc_hider", i64, %union.anon.15 }
%"struct.std::__cxx11::basic_string<char>::_Alloc_hider" = type { ptr }
%union.anon.15 = type { i64, [8 x i8] }
%"struct.OpenImageIO::v3_1_0::TypeDesc" = type { i8, i8, i8, i8, i32 }
%"class.OpenImageIO::v3_1_0::TIFFInput" = type { %"class.OpenImageIO::v3_1_0::ImageInput", ptr, %"class.std::__cxx11::basic_string", %"class.std::vector.16", %"class.std::vector.16", i32, i32, i8, i8, i8, i8, i8, i8, i8, i8, i8, i32, i16, i16, i16, i16, i16, i16, %"class.std::vector.21", %"class.std::vector.26", %"class.std::vector.31" }
%"class.OpenImageIO::v3_1_0::ImageInput" = type { ptr, %"class.OpenImageIO::v3_1_0::ImageSpec", %"class.std::unique_ptr" }
%"class.OpenImageIO::v3_1_0::ImageSpec" = type { i32, i32, i32, i32, i32, i32, i32, i32, i32, i32, i32, i32, i32, i32, i32, i32, %"struct.OpenImageIO::v3_1_0::TypeDesc", %"class.std::vector", %"class.std::vector.0", i32, i32, i8, %"class.OpenImageIO::v3_1_0::ParamValueList" }
%"class.std::vector" = type { %"struct.std::_Vector_base" }
%"struct.std::_Vector_base" = type { %"struct.std::_Vector_base<OpenImageIO::v3_1_0::TypeDesc, std::allocator<OpenImageIO::v3_1_0::TypeDesc>>::_Vector_impl" }
%"struct.std::_Vector_base<OpenImageIO::v3_1_0::TypeDesc, std::allocator<OpenImageIO::v3_1_0::TypeDesc>>::_Vector_impl" = type { %"struct.std::_Vector_base<OpenImageIO::v3_1_0::TypeDesc, std::allocator<OpenImageIO::v3_1_0::TypeDesc>>::_Vector_impl_data" }
%"struct.std::_Vector_base<OpenImageIO::v3_1_0::TypeDesc, std::allocator<OpenImageIO::v3_1_0::TypeDesc>>::_Vector_impl_data" = type { ptr, ptr, ptr }
%"class.std::vector.0" = type { %"struct.std::_Vector_base.1" }
%"struct.std::_Vector_base.1" = type { %"struct.std::_Vector_base<std::__cxx11::basic_string<char>, std::allocator<std::__cxx11::basic_string<char>>>::_Vector_impl" }
%"struct.std::_Vector_base<std::__cxx11::basic_string<char>, std::allocator<std::__cxx11::basic_string<char>>>::_Vector_impl" = type { %"struct.std::_Vector_base<std::__cxx11::basic_string<char>, std::allocator<std::__cxx11::basic_string<char>>>::_Vector_impl_data" }
%"struct.std::_Vector_base<std::__cxx11::basic_string<char>, std::allocator<std::__cxx11::basic_string<char>>>::_Vector_impl_data" = type { ptr, ptr, ptr }
%"class.OpenImageIO::v3_1_0::ParamValueList" = type { %"class.std::vector.5" }
%"class.std::vector.5" = type { %"struct.std::_Vector_base.6" }
%"struct.std::_Vector_base.6" = type { %"struct.std::_Vector_base<OpenImageIO::v3_1_0::ParamValue, std::allocator<OpenImageIO::v3_1_0::ParamValue>>::_Vector_impl" }
%"struct.std::_Vector_base<OpenImageIO::v3_1_0::ParamValue, std::allocator<OpenImageIO::v3_1_0::ParamValue>>::_Vector_impl" = type { %"struct.std::_Vector_base<OpenImageIO::v3_1_0::ParamValue, std::allocator<OpenImageIO::v3_1_0::ParamValue>>::_Vector_impl_data" }
%"struct.std::_Vector_base<OpenImageIO::v3_1_0::ParamValue, std::allocator<OpenImageIO::v3_1_0::ParamValue>>::_Vector_impl_data" = type { ptr, ptr, ptr }
%"class.std::unique_ptr" = type { %"struct.std::__uniq_ptr_data" }
%"struct.std::__uniq_ptr_data" = type { %"class.std::__uniq_ptr_impl" }
%"class.std::__uniq_ptr_impl" = type { %"class.std::tuple" }
%"class.std::tuple" = type { %"struct.std::_Tuple_impl" }
%"struct.std::_Tuple_impl" = type { %"struct.std::_Tuple_impl.10", %"struct.std::_Head_base.11" }
%"struct.std::_Tuple_impl.10" = type { %"struct.std::_Head_base" }
%"struct.std::_Head_base" = type { ptr }
%"struct.std::_Head_base.11" = type { ptr }
%"class.std::vector.16" = type { %"struct.std::_Vector_base.17" }
%"struct.std::_Vector_base.17" = type { %"struct.std::_Vector_base<unsigned char, std::allocator<unsigned char>>::_Vector_impl" }
%"struct.std::_Vector_base<unsigned char, std::allocator<unsigned char>>::_Vector_impl" = type { %"struct.std::_Vector_base<unsigned char, std::allocator<unsigned char>>::_Vector_impl_data" }
%"struct.std::_Vector_base<unsigned char, std::allocator<unsigned char>>::_Vector_impl_data" = type { ptr, ptr, ptr }
%"class.std::vector.21" = type { %"struct.std::_Vector_base.22" }
%"struct.std::_Vector_base.22" = type { %"struct.std::_Vector_base<unsigned short, std::allocator<unsigned short>>::_Vector_impl" }
%"struct.std::_Vector_base<unsigned short, std::allocator<unsigned short>>::_Vector_impl" = type { %"struct.std::_Vector_base<unsigned short, std::allocator<unsigned short>>::_Vector_impl_data" }
%"struct.std::_Vector_base<unsigned short, std::allocator<unsigned short>>::_Vector_impl_data" = type { ptr, ptr, ptr }
%"class.std::vector.26" = type { %"struct.std::_Vector_base.27" }
%"struct.std::_Vector_base.27" = type { %"struct.std::_Vector_base<unsigned int, std::allocator<unsigned int>>::_Vector_impl" }
%"struct.std::_Vector_base<unsigned int, std::allocator<unsigned int>>::_Vector_impl" = type { %"struct.std::_Vector_base<unsigned int, std::allocator<unsigned int>>::_Vector_impl_data" }
%"struct.std::_Vector_base<unsigned int, std::allocator<unsigned int>>::_Vector_impl_data" = type { ptr, ptr, ptr }
%"class.std::vector.31" = type { %"struct.std::_Vector_base.32" }
%"struct.std::_Vector_base.32" = type { %"struct.std::_Vector_base<OpenImageIO::v3_1_0::ImageSpec, std::allocator<OpenImageIO::v3_1_0::ImageSpec>>::_Vector_impl" }
%"struct.std::_Vector_base<OpenImageIO::v3_1_0::ImageSpec, std::allocator<OpenImageIO::v3_1_0::ImageSpec>>::_Vector_impl" = type { %"struct.std::_Vector_base<OpenImageIO::v3_1_0::ImageSpec, std::allocator<OpenImageIO::v3_1_0::ImageSpec>>::_Vector_impl_data" }
%"struct.std::_Vector_base<OpenImageIO::v3_1_0::ImageSpec, std::allocator<OpenImageIO::v3_1_0::ImageSpec>>::_Vector_impl_data" = type { ptr, ptr, ptr }
%"class.std::lock_guard" = type { ptr }

@_ZN11OpenImageIO6v3_1_011TypeUnknownE = linkonce_odr hidden constant %"struct.OpenImageIO::v3_1_0::TypeDesc" { i8 0, i8 1, i8 0, i8 0, i32 0 }, comdat, align 4

; Function Attrs: inlinehint mustprogress nounwind uwtable
define linkonce_odr noundef nonnull align 4 dereferenceable(4) ptr @_ZSt3maxIiERKT_S2_S2_(ptr noundef nonnull align 4 dereferenceable(4) %0, ptr noundef nonnull align 4 dereferenceable(4) %1) #4 comdat {
  %3 = alloca ptr, align 8
  %4 = alloca ptr, align 8
  %5 = alloca ptr, align 8
  store ptr %0, ptr %4, align 8, !tbaa !238
  store ptr %1, ptr %5, align 8, !tbaa !238
  %6 = load ptr, ptr %4, align 8, !tbaa !238
  %7 = load i32, ptr %6, align 4, !tbaa !22
  %8 = load ptr, ptr %5, align 8, !tbaa !238
  %9 = load i32, ptr %8, align 4, !tbaa !22
  %10 = icmp slt i32 %7, %9
  br i1 %10, label %11, label %13

11:                                               ; preds = %2
  %12 = load ptr, ptr %5, align 8, !tbaa !238
  store ptr %12, ptr %3, align 8
  br label %15

13:                                               ; preds = %2
  %14 = load ptr, ptr %4, align 8, !tbaa !238
  store ptr %14, ptr %3, align 8
  br label %15

15:                                               ; preds = %13, %11
  %16 = load ptr, ptr %3, align 8
  ret ptr %16
}

; Function Attrs: mustprogress nounwind uwtable
define linkonce_odr void @_ZNSt10lock_guardIRKN11OpenImageIO6v3_1_010ImageInputEED2Ev(ptr noundef nonnull align 8 dereferenceable(8) %0) unnamed_addr #7 comdat align 2 personality ptr @__gxx_personality_v0 {
  %2 = alloca ptr, align 8
  store ptr %0, ptr %2, align 8, !tbaa !202
  %3 = load ptr, ptr %2, align 8
  %4 = getelementptr inbounds nuw %"class.std::lock_guard", ptr %3, i32 0, i32 0
  %5 = load ptr, ptr %4, align 8, !tbaa !204
  invoke void @_ZNK11OpenImageIO6v3_1_010ImageInput6unlockEv(ptr noundef nonnull align 8 dereferenceable(184) %5)
          to label %6 unwind label %7

6:                                                ; preds = %1
  ret void

7:                                                ; preds = %1
  %8 = landingpad { ptr, i32 }
          catch ptr null
  %9 = extractvalue { ptr, i32 } %8, 0
  call void @__clang_call_terminate(ptr %9) #29
  unreachable
}

; Function Attrs: mustprogress nounwind uwtable
define linkonce_odr noundef zeroext i1 @_ZNK11OpenImageIO6v3_1_08TypeDesceqERKS1_(ptr noundef nonnull align 4 dereferenceable(8) %0, ptr noundef nonnull align 4 dereferenceable(8) %1) #7 comdat align 2 {
  %3 = alloca ptr, align 8
  %4 = alloca ptr, align 8
  store ptr %0, ptr %3, align 8, !tbaa !179
  store ptr %1, ptr %4, align 8, !tbaa !179
  %5 = load ptr, ptr %3, align 8
  %6 = getelementptr inbounds nuw %"struct.OpenImageIO::v3_1_0::TypeDesc", ptr %5, i32 0, i32 0
  %7 = load i8, ptr %6, align 4, !tbaa !182
  %8 = zext i8 %7 to i32
  %9 = load ptr, ptr %4, align 8, !tbaa !179
  %10 = getelementptr inbounds nuw %"struct.OpenImageIO::v3_1_0::TypeDesc", ptr %9, i32 0, i32 0
  %11 = load i8, ptr %10, align 4, !tbaa !182
  %12 = zext i8 %11 to i32
  %13 = icmp eq i32 %8, %12
  br i1 %13, label %14, label %39

14:                                               ; preds = %2
  %15 = getelementptr inbounds nuw %"struct.OpenImageIO::v3_1_0::TypeDesc", ptr %5, i32 0, i32 1
  %16 = load i8, ptr %15, align 1, !tbaa !183
  %17 = zext i8 %16 to i32
  %18 = load ptr, ptr %4, align 8, !tbaa !179
  %19 = getelementptr inbounds nuw %"struct.OpenImageIO::v3_1_0::TypeDesc", ptr %18, i32 0, i32 1
  %20 = load i8, ptr %19, align 1, !tbaa !183
  %21 = zext i8 %20 to i32
  %22 = icmp eq i32 %17, %21
  br i1 %22, label %23, label %39

23:                                               ; preds = %14
  %24 = getelementptr inbounds nuw %"struct.OpenImageIO::v3_1_0::TypeDesc", ptr %5, i32 0, i32 2
  %25 = load i8, ptr %24, align 2, !tbaa !199
  %26 = zext i8 %25 to i32
  %27 = load ptr, ptr %4, align 8, !tbaa !179
  %28 = getelementptr inbounds nuw %"struct.OpenImageIO::v3_1_0::TypeDesc", ptr %27, i32 0, i32 2
  %29 = load i8, ptr %28, align 2, !tbaa !199
  %30 = zext i8 %29 to i32
  %31 = icmp eq i32 %26, %30
  br i1 %31, label %32, label %39

32:                                               ; preds = %23
  %33 = getelementptr inbounds nuw %"struct.OpenImageIO::v3_1_0::TypeDesc", ptr %5, i32 0, i32 4
  %34 = load i32, ptr %33, align 4, !tbaa !201
  %35 = load ptr, ptr %4, align 8, !tbaa !179
  %36 = getelementptr inbounds nuw %"struct.OpenImageIO::v3_1_0::TypeDesc", ptr %35, i32 0, i32 4
  %37 = load i32, ptr %36, align 4, !tbaa !201
  %38 = icmp eq i32 %34, %37
  br label %39

39:                                               ; preds = %32, %23, %14, %2
  %40 = phi i1 [ false, %23 ], [ false, %14 ], [ false, %2 ], [ %38, %32 ]
  ret i1 %40
}

; Function Attrs: mustprogress uwtable
define linkonce_odr void @_ZNSt10lock_guardIRKN11OpenImageIO6v3_1_010ImageInputEEC2ES4_(ptr noundef nonnull align 8 dereferenceable(8) %0, ptr noundef nonnull align 8 dereferenceable(184) %1) unnamed_addr #6 comdat align 2 {
  %3 = alloca ptr, align 8
  %4 = alloca ptr, align 8
  store ptr %0, ptr %3, align 8, !tbaa !202
  store ptr %1, ptr %4, align 8, !tbaa !133
  %5 = load ptr, ptr %3, align 8
  %6 = getelementptr inbounds nuw %"class.std::lock_guard", ptr %5, i32 0, i32 0
  %7 = load ptr, ptr %4, align 8, !tbaa !133
  store ptr %7, ptr %6, align 8, !tbaa !133
  %8 = getelementptr inbounds nuw %"class.std::lock_guard", ptr %5, i32 0, i32 0
  %9 = load ptr, ptr %8, align 8, !tbaa !204
  call void @_ZNK11OpenImageIO6v3_1_010ImageInput4lockEv(ptr noundef nonnull align 8 dereferenceable(184) %9)
  ret void
}

; Function Attrs: mustprogress uwtable
define hidden noundef zeroext i1 @_ZN11OpenImageIO6v3_1_09TIFFInput9read_tileEiiiNS0_8TypeDescEPvlll(ptr noundef nonnull align 8 dereferenceable(384) %0, i32 noundef %1, i32 noundef %2, i32 noundef %3, i64 %4, ptr noundef %5, i64 noundef %6, i64 noundef %7, i64 noundef %8) unnamed_addr #6 align 2 {
  %10 = alloca %"struct.OpenImageIO::v3_1_0::TypeDesc", align 4
  %11 = alloca ptr, align 8
  %12 = alloca i32, align 4
  %13 = alloca i32, align 4
  %14 = alloca i32, align 4
  %15 = alloca ptr, align 8
  %16 = alloca i64, align 8
  %17 = alloca i64, align 8
  %18 = alloca i64, align 8
  %19 = alloca i8, align 1
  %20 = alloca %"struct.OpenImageIO::v3_1_0::TypeDesc", align 4
  %21 = alloca %"class.std::lock_guard", align 8
  %22 = alloca i32, align 4
  %23 = alloca %"struct.OpenImageIO::v3_1_0::TypeDesc", align 4
  store i64 %4, ptr %10, align 4
  store ptr %0, ptr %11, align 8, !tbaa !24
  store i32 %1, ptr %12, align 4, !tbaa !22
  store i32 %2, ptr %13, align 4, !tbaa !22
  store i32 %3, ptr %14, align 4, !tbaa !22
  store ptr %5, ptr %15, align 8, !tbaa !128
  store i64 %6, ptr %16, align 8, !tbaa !109
  store i64 %7, ptr %17, align 8, !tbaa !109
  store i64 %8, ptr %18, align 8, !tbaa !109
  %24 = load ptr, ptr %11, align 8
  call void @llvm.lifetime.start.p0(i64 1, ptr %19) #3
  %25 = load i32, ptr %12, align 4, !tbaa !22
  %26 = load i32, ptr %13, align 4, !tbaa !22
  %27 = load i32, ptr %14, align 4, !tbaa !22
  call void @llvm.memcpy.p0.p0.i64(ptr align 4 %20, ptr align 4 %10, i64 8, i1 false), !tbaa.struct !136
  %28 = load ptr, ptr %15, align 8, !tbaa !128
  %29 = load i64, ptr %16, align 8, !tbaa !109
  %30 = load i64, ptr %17, align 8, !tbaa !109
  %31 = load i64, ptr %18, align 8, !tbaa !109
  %32 = load i64, ptr %20, align 4
  %33 = call noundef zeroext i1 @_ZN11OpenImageIO6v3_1_010ImageInput9read_tileEiiiNS0_8TypeDescEPvlll(ptr noundef nonnull align 8 dereferenceable(184) %24, i32 noundef %25, i32 noundef %26, i32 noundef %27, i64 %32, ptr noundef %28, i64 noundef %29, i64 noundef %30, i64 noundef %31)
  %34 = zext i1 %33 to i8
  store i8 %34, ptr %19, align 1, !tbaa !118
  %35 = load i8, ptr %19, align 1, !tbaa !118, !range !119, !noundef !120
  %36 = trunc i8 %35 to i1
  br i1 %36, label %37, label %74

37:                                               ; preds = %9
  %38 = getelementptr inbounds nuw %"class.OpenImageIO::v3_1_0::TIFFInput", ptr %24, i32 0, i32 11
  %39 = load i8, ptr %38, align 4, !tbaa !94, !range !119, !noundef !120
  %40 = trunc i8 %39 to i1
  br i1 %40, label %41, label %74

41:                                               ; preds = %37
  call void @llvm.lifetime.start.p0(i64 8, ptr %21) #3
  call void @_ZNSt10lock_guardIRKN11OpenImageIO6v3_1_010ImageInputEEC2ES4_(ptr noundef nonnull align 8 dereferenceable(8) %21, ptr noundef nonnull align 8 dereferenceable(184) %24)
  %42 = call noundef zeroext i1 @_ZNK11OpenImageIO6v3_1_08TypeDesceqERKS1_(ptr noundef nonnull align 4 dereferenceable(8) %10, ptr noundef nonnull align 4 dereferenceable(8) @_ZN11OpenImageIO6v3_1_011TypeUnknownE) #3
  br i1 %42, label %43, label %46

43:                                               ; preds = %41
  %44 = getelementptr inbounds nuw %"class.OpenImageIO::v3_1_0::ImageInput", ptr %24, i32 0, i32 1
  %45 = getelementptr inbounds nuw %"class.OpenImageIO::v3_1_0::ImageSpec", ptr %44, i32 0, i32 16
  call void @llvm.memcpy.p0.p0.i64(ptr align 4 %10, ptr align 8 %45, i64 8, i1 false), !tbaa.struct !136
  br label %46

46:                                               ; preds = %43, %41
  call void @_ZNSt10lock_guardIRKN11OpenImageIO6v3_1_010ImageInputEED2Ev(ptr noundef nonnull align 8 dereferenceable(8) %21) #3
  call void @llvm.lifetime.end.p0(i64 8, ptr %21) #3
  %47 = getelementptr inbounds nuw %"class.OpenImageIO::v3_1_0::ImageInput", ptr %24, i32 0, i32 1
  %48 = getelementptr inbounds nuw %"class.OpenImageIO::v3_1_0::ImageSpec", ptr %47, i32 0, i32 15
  %49 = load i32, ptr %48, align 4, !tbaa !141
  %50 = getelementptr inbounds nuw %"class.OpenImageIO::v3_1_0::ImageInput", ptr %24, i32 0, i32 1
  %51 = getelementptr inbounds nuw %"class.OpenImageIO::v3_1_0::ImageSpec", ptr %50, i32 0, i32 12
  %52 = load i32, ptr %51, align 8, !tbaa !153
  %53 = getelementptr inbounds nuw %"class.OpenImageIO::v3_1_0::ImageInput", ptr %24, i32 0, i32 1
  %54 = getelementptr inbounds nuw %"class.OpenImageIO::v3_1_0::ImageSpec", ptr %53, i32 0, i32 13
  %55 = load i32, ptr %54, align 4, !tbaa !154
  call void @llvm.lifetime.start.p0(i64 4, ptr %22) #3
  store i32 1, ptr %22, align 4, !tbaa !22
  %56 = getelementptr inbounds nuw %"class.OpenImageIO::v3_1_0::ImageInput", ptr %24, i32 0, i32 1
  %57 = getelementptr inbounds nuw %"class.OpenImageIO::v3_1_0::ImageSpec", ptr %56, i32 0, i32 14
  %58 = call noundef nonnull align 4 dereferenceable(4) ptr @_ZSt3maxIiERKT_S2_S2_(ptr noundef nonnull align 4 dereferenceable(4) %22, ptr noundef nonnull align 4 dereferenceable(4) %57)
  %59 = load i32, ptr %58, align 4, !tbaa !22
  %60 = getelementptr inbounds nuw %"class.OpenImageIO::v3_1_0::ImageInput", ptr %24, i32 0, i32 1
  %61 = getelementptr inbounds nuw %"class.OpenImageIO::v3_1_0::ImageSpec", ptr %60, i32 0, i32 15
  %62 = load i32, ptr %61, align 4, !tbaa !141
  call void @llvm.memcpy.p0.p0.i64(ptr align 4 %23, ptr align 4 %10, i64 8, i1 false), !tbaa.struct !136
  %63 = load ptr, ptr %15, align 8, !tbaa !128
  %64 = load i64, ptr %16, align 8, !tbaa !109
  %65 = load i64, ptr %17, align 8, !tbaa !109
  %66 = load i64, ptr %18, align 8, !tbaa !109
  %67 = getelementptr inbounds nuw %"class.OpenImageIO::v3_1_0::ImageInput", ptr %24, i32 0, i32 1
  %68 = getelementptr inbounds nuw %"class.OpenImageIO::v3_1_0::ImageSpec", ptr %67, i32 0, i32 19
  %69 = load i32, ptr %68, align 8, !tbaa !172
  %70 = getelementptr inbounds nuw %"class.OpenImageIO::v3_1_0::ImageInput", ptr %24, i32 0, i32 1
  %71 = getelementptr inbounds nuw %"class.OpenImageIO::v3_1_0::ImageSpec", ptr %70, i32 0, i32 20
  %72 = load i32, ptr %71, align 4, !tbaa !350
  %73 = load i64, ptr %23, align 4
  call void @_ZN11OpenImageIO6v3_1_07premultEiiiiiiNS0_8TypeDescEPvlllii(i32 noundef %49, i32 noundef %52, i32 noundef %55, i32 noundef %59, i32 noundef 0, i32 noundef %62, i64 %73, ptr noundef %63, i64 noundef %64, i64 noundef %65, i64 noundef %66, i32 noundef %69, i32 noundef %72)
  call void @llvm.lifetime.end.p0(i64 4, ptr %22) #3
  br label %74

74:                                               ; preds = %46, %37, %9
  %75 = load i8, ptr %19, align 1, !tbaa !118, !range !119, !noundef !120
  %76 = trunc i8 %75 to i1
  call void @llvm.lifetime.end.p0(i64 1, ptr %19) #3
  ret i1 %76
}