; Function Attrs: mustprogress uwtable
define hidden noundef zeroext i1 @_ZN11OpenImageIO6v3_1_09TIFFInput9read_tileEiiiNS0_8TypeDescEPvlll(ptr noundef nonnull align 8 dereferenceable(384) %0, i32 noundef %1, i32 noundef %2, i32 noundef %3, i64 %4, ptr noundef %5, i64 noundef %6, i64 noundef %7, i64 noundef %8) unnamed_addr #5 align 2 personality ptr @__gxx_personality_v0 {
  %.sroa.4.0.extract.shift = lshr i64 %4, 8
  %.sroa.5.0.extract.shift = lshr i64 %4, 16
  %10 = tail call noundef zeroext i1 @_ZN11OpenImageIO6v3_1_010ImageInput9read_tileEiiiNS0_8TypeDescEPvlll(ptr noundef nonnull align 8 dereferenceable(184) %0, i32 noundef %1, i32 noundef %2, i32 noundef %3, i64 %4, ptr noundef %5, i64 noundef %6, i64 noundef %7, i64 noundef %8)
  br i1 %10, label %11, label %43

11:                                               ; preds = %9
  %12 = getelementptr inbounds nuw i8, ptr %0, i64 284
  %13 = load i8, ptr %12, align 4, !tbaa !175, !range !16, !noundef !17
  %14 = trunc nuw i8 %13 to i1
  br i1 %14, label %15, label %43

15:                                               ; preds = %11
  tail call void @_ZNK11OpenImageIO6v3_1_010ImageInput4lockEv(ptr noundef nonnull align 8 dereferenceable(184) %0)
  %16 = and i64 %4, 255
  %17 = icmp eq i64 %16, 0
  br i1 %17, label %18, label %_ZNK11OpenImageIO6v3_1_08TypeDesceqERKS1_.exit.thread

18:                                               ; preds = %15
  %19 = and i64 %4, 65280
  %20 = icmp eq i64 %19, 256
  br i1 %20, label %21, label %_ZNK11OpenImageIO6v3_1_08TypeDesceqERKS1_.exit.thread

21:                                               ; preds = %18
  %22 = and i64 %4, 16711680
  %23 = icmp eq i64 %22, 0
  br i1 %23, label %_ZNK11OpenImageIO6v3_1_08TypeDesceqERKS1_.exit, label %_ZNK11OpenImageIO6v3_1_08TypeDesceqERKS1_.exit.thread

_ZNK11OpenImageIO6v3_1_08TypeDesceqERKS1_.exit:   ; preds = %21
  %24 = icmp ult i64 %4, 4294967296
  br i1 %24, label %25, label %_ZNK11OpenImageIO6v3_1_08TypeDesceqERKS1_.exit.thread

25:                                               ; preds = %_ZNK11OpenImageIO6v3_1_08TypeDesceqERKS1_.exit
  %26 = getelementptr inbounds nuw i8, ptr %0, i64 72
  %27 = load i64, ptr %26, align 8
  %.sroa.4.0.extract.shift17 = lshr i64 %27, 8
  %.sroa.5.0.extract.shift19 = lshr i64 %27, 16
  br label %_ZNK11OpenImageIO6v3_1_08TypeDesceqERKS1_.exit.thread

_ZNK11OpenImageIO6v3_1_08TypeDesceqERKS1_.exit.thread: ; preds = %15, %18, %21, %25, %_ZNK11OpenImageIO6v3_1_08TypeDesceqERKS1_.exit
  %.sroa.5.0 = phi i64 [ %.sroa.5.0.extract.shift19, %25 ], [ 0, %_ZNK11OpenImageIO6v3_1_08TypeDesceqERKS1_.exit ], [ %.sroa.5.0.extract.shift, %21 ], [ %.sroa.5.0.extract.shift, %18 ], [ %.sroa.5.0.extract.shift, %15 ]
  %.sroa.4.0 = phi i64 [ %.sroa.4.0.extract.shift17, %25 ], [ 1, %_ZNK11OpenImageIO6v3_1_08TypeDesceqERKS1_.exit ], [ 1, %21 ], [ %.sroa.4.0.extract.shift, %18 ], [ %.sroa.4.0.extract.shift, %15 ]
  %.sroa.015.0 = phi i64 [ %27, %25 ], [ 0, %_ZNK11OpenImageIO6v3_1_08TypeDesceqERKS1_.exit ], [ 0, %21 ], [ 0, %18 ], [ %4, %15 ]
  %.sroa.6.0.in.in = phi i64 [ %27, %25 ], [ %4, %_ZNK11OpenImageIO6v3_1_08TypeDesceqERKS1_.exit ], [ %4, %21 ], [ %4, %18 ], [ %4, %15 ]
  invoke void @_ZNK11OpenImageIO6v3_1_010ImageInput6unlockEv(ptr noundef nonnull align 8 dereferenceable(184) %0)
          to label %_ZNSt10lock_guardIRKN11OpenImageIO6v3_1_010ImageInputEED2Ev.exit unwind label %28

28:                                               ; preds = %_ZNK11OpenImageIO6v3_1_08TypeDesceqERKS1_.exit.thread
  %29 = landingpad { ptr, i32 }
          catch ptr null
  %30 = extractvalue { ptr, i32 } %29, 0
  tail call void @__clang_call_terminate(ptr %30) #37
  unreachable

_ZNSt10lock_guardIRKN11OpenImageIO6v3_1_010ImageInputEED2Ev.exit: ; preds = %_ZNK11OpenImageIO6v3_1_08TypeDesceqERKS1_.exit.thread
  %31 = getelementptr inbounds nuw i8, ptr %0, i64 68
  %32 = load i32, ptr %31, align 4, !tbaa !134
  %33 = getelementptr inbounds nuw i8, ptr %0, i64 56
  %34 = load i32, ptr %33, align 8, !tbaa !146
  %35 = getelementptr inbounds nuw i8, ptr %0, i64 60
  %36 = load i32, ptr %35, align 4, !tbaa !147
  %37 = getelementptr inbounds nuw i8, ptr %0, i64 64
  %38 = load i32, ptr %37, align 8, !tbaa !120
  %.sroa.speculated = tail call i32 @llvm.smax.i32(i32 %38, i32 1)
  %.sroa.6.0.insert.insert = and i64 %.sroa.6.0.in.in, -16777216
  %.sroa.5.0.insert.ext = shl nuw i64 %.sroa.5.0, 16
  %.sroa.5.0.insert.shift = and i64 %.sroa.5.0.insert.ext, 16711680
  %.sroa.4.0.insert.ext = shl nuw i64 %.sroa.4.0, 8
  %.sroa.4.0.insert.shift = and i64 %.sroa.4.0.insert.ext, 65280
  %.sroa.015.0.insert.ext = and i64 %.sroa.015.0, 255
  %.sroa.5.0.insert.insert = or disjoint i64 %.sroa.4.0.insert.shift, %.sroa.5.0.insert.shift
  %.sroa.4.0.insert.insert = or disjoint i64 %.sroa.5.0.insert.insert, %.sroa.015.0.insert.ext
  %.sroa.015.0.insert.insert = or disjoint i64 %.sroa.4.0.insert.insert, %.sroa.6.0.insert.insert
  %39 = getelementptr inbounds nuw i8, ptr %0, i64 128
  %40 = load i32, ptr %39, align 8, !tbaa !166
  %41 = getelementptr inbounds nuw i8, ptr %0, i64 132
  %42 = load i32, ptr %41, align 4, !tbaa !366
  tail call void @_ZN11OpenImageIO6v3_1_07premultEiiiiiiNS0_8TypeDescEPvlllii(i32 noundef %32, i32 noundef %34, i32 noundef %36, i32 noundef %.sroa.speculated, i32 noundef 0, i32 noundef %32, i64 %.sroa.015.0.insert.insert, ptr noundef %5, i64 noundef %6, i64 noundef %7, i64 noundef %8, i32 noundef %40, i32 noundef %42)
  br label %43

43:                                               ; preds = %_ZNSt10lock_guardIRKN11OpenImageIO6v3_1_010ImageInputEED2Ev.exit, %11, %9
  ret i1 %10
}